target datalayout = "e-m:e-p270:32:32-p271:32:32-p272:64:64-i64:64-i128:128-f80:128-n8:16:32:64-S128"
target triple = "x86_64-pc-linux-gnu"

%struct.UBiDi = type { ptr, ptr, i32, i32, i32, i32, i32, i32, i32, i32, i32, ptr, ptr, ptr, ptr, ptr, ptr, i8, i8, ptr, ptr, i8, i32, i32, i8, i8, i8, ptr, i32, ptr, i32, ptr, i32, i32, i32, i32, i32, ptr, [10 x %struct.Para], i32, ptr, [1 x %struct.Run], i32, ptr, [5 x %struct.Isolate], %struct.InsertPoints, i32, ptr, ptr }
%struct.Para = type { i32, i32 }
%struct.Run = type { i32, i32, i32 }
%struct.Isolate = type { i32, i32, i32, i16 }
%struct.InsertPoints = type { i32, i32, i32, i32, ptr }
%struct.Point = type { i32, i32 }

; Function Attrs: mustprogress uwtable
define internal void @_ZL8addPointP5UBiDiii(ptr noundef %0, i32 noundef %1, i32 noundef %2) #0 {
  %4 = alloca ptr, align 8
  %5 = alloca i32, align 4
  %6 = alloca i32, align 4
  %7 = alloca %struct.Point, align 4
  %8 = alloca ptr, align 8
  %9 = alloca i32, align 4
  %10 = alloca ptr, align 8
  store ptr %0, ptr %4, align 8, !tbaa !11
  store i32 %1, ptr %5, align 4, !tbaa !7
  store i32 %2, ptr %6, align 4, !tbaa !7
  call void @llvm.lifetime.start.p0(i64 8, ptr %7) #10
  call void @llvm.lifetime.start.p0(i64 8, ptr %8) #10
  %11 = load ptr, ptr %4, align 8, !tbaa !11
  %12 = getelementptr inbounds nuw %struct.UBiDi, ptr %11, i32 0, i32 45
  store ptr %12, ptr %8, align 8, !tbaa !137
  %13 = load ptr, ptr %8, align 8, !tbaa !137
  %14 = getelementptr inbounds nuw %struct.InsertPoints, ptr %13, i32 0, i32 0
  %15 = load i32, ptr %14, align 8, !tbaa !139
  %16 = icmp eq i32 %15, 0
  br i1 %16, label %17, label %31

17:                                               ; preds = %3
  %18 = call noalias ptr @uprv_malloc_77(i64 noundef 80) #11
  %19 = load ptr, ptr %8, align 8, !tbaa !137
  %20 = getelementptr inbounds nuw %struct.InsertPoints, ptr %19, i32 0, i32 4
  store ptr %18, ptr %20, align 8, !tbaa !140
  %21 = load ptr, ptr %8, align 8, !tbaa !137
  %22 = getelementptr inbounds nuw %struct.InsertPoints, ptr %21, i32 0, i32 4
  %23 = load ptr, ptr %22, align 8, !tbaa !140
  %24 = icmp eq ptr %23, null
  br i1 %24, label %25, label %28

25:                                               ; preds = %17
  %26 = load ptr, ptr %8, align 8, !tbaa !137
  %27 = getelementptr inbounds nuw %struct.InsertPoints, ptr %26, i32 0, i32 3
  store i32 7, ptr %27, align 4, !tbaa !141
  store i32 1, ptr %9, align 4
  br label %91

28:                                               ; preds = %17
  %29 = load ptr, ptr %8, align 8, !tbaa !137
  %30 = getelementptr inbounds nuw %struct.InsertPoints, ptr %29, i32 0, i32 0
  store i32 10, ptr %30, align 8, !tbaa !139
  br label %31

31:                                               ; preds = %28, %3
  %32 = load ptr, ptr %8, align 8, !tbaa !137
  %33 = getelementptr inbounds nuw %struct.InsertPoints, ptr %32, i32 0, i32 1
  %34 = load i32, ptr %33, align 4, !tbaa !142
  %35 = load ptr, ptr %8, align 8, !tbaa !137
  %36 = getelementptr inbounds nuw %struct.InsertPoints, ptr %35, i32 0, i32 0
  %37 = load i32, ptr %36, align 8, !tbaa !139
  %38 = icmp sge i32 %34, %37
  br i1 %38, label %39, label %74

39:                                               ; preds = %31
  call void @llvm.lifetime.start.p0(i64 8, ptr %10) #10
  %40 = load ptr, ptr %8, align 8, !tbaa !137
  %41 = getelementptr inbounds nuw %struct.InsertPoints, ptr %40, i32 0, i32 4
  %42 = load ptr, ptr %41, align 8, !tbaa !140
  store ptr %42, ptr %10, align 8, !tbaa !143
  %43 = load ptr, ptr %8, align 8, !tbaa !137
  %44 = getelementptr inbounds nuw %struct.InsertPoints, ptr %43, i32 0, i32 4
  %45 = load ptr, ptr %44, align 8, !tbaa !140
  %46 = load ptr, ptr %8, align 8, !tbaa !137
  %47 = getelementptr inbounds nuw %struct.InsertPoints, ptr %46, i32 0, i32 0
  %48 = load i32, ptr %47, align 8, !tbaa !139
  %49 = mul nsw i32 %48, 2
  %50 = sext i32 %49 to i64
  %51 = mul i64 %50, 8
  %52 = call ptr @uprv_realloc_77(ptr noundef %45, i64 noundef %51) #12
  %53 = load ptr, ptr %8, align 8, !tbaa !137
  %54 = getelementptr inbounds nuw %struct.InsertPoints, ptr %53, i32 0, i32 4
  store ptr %52, ptr %54, align 8, !tbaa !140
  %55 = load ptr, ptr %8, align 8, !tbaa !137
  %56 = getelementptr inbounds nuw %struct.InsertPoints, ptr %55, i32 0, i32 4
  %57 = load ptr, ptr %56, align 8, !tbaa !140
  %58 = icmp eq ptr %57, null
  br i1 %58, label %59, label %65

59:                                               ; preds = %39
  %60 = load ptr, ptr %10, align 8, !tbaa !143
  %61 = load ptr, ptr %8, align 8, !tbaa !137
  %62 = getelementptr inbounds nuw %struct.InsertPoints, ptr %61, i32 0, i32 4
  store ptr %60, ptr %62, align 8, !tbaa !140
  %63 = load ptr, ptr %8, align 8, !tbaa !137
  %64 = getelementptr inbounds nuw %struct.InsertPoints, ptr %63, i32 0, i32 3
  store i32 7, ptr %64, align 4, !tbaa !141
  store i32 1, ptr %9, align 4
  br label %71

65:                                               ; preds = %39
  %66 = load ptr, ptr %8, align 8, !tbaa !137
  %67 = getelementptr inbounds nuw %struct.InsertPoints, ptr %66, i32 0, i32 0
  %68 = load i32, ptr %67, align 8, !tbaa !139
  %69 = mul nsw i32 %68, 2
  store i32 %69, ptr %67, align 8, !tbaa !139
  br label %70

70:                                               ; preds = %65
  store i32 0, ptr %9, align 4
  br label %71

71:                                               ; preds = %70, %59
  call void @llvm.lifetime.end.p0(i64 8, ptr %10) #10
  %72 = load i32, ptr %9, align 4
  switch i32 %72, label %91 [
    i32 0, label %73
  ]

73:                                               ; preds = %71
  br label %74

74:                                               ; preds = %73, %31
  %75 = load i32, ptr %5, align 4, !tbaa !7
  %76 = getelementptr inbounds nuw %struct.Point, ptr %7, i32 0, i32 0
  store i32 %75, ptr %76, align 4, !tbaa !144
  %77 = load i32, ptr %6, align 4, !tbaa !7
  %78 = getelementptr inbounds nuw %struct.Point, ptr %7, i32 0, i32 1
  store i32 %77, ptr %78, align 4, !tbaa !146
  %79 = load ptr, ptr %8, align 8, !tbaa !137
  %80 = getelementptr inbounds nuw %struct.InsertPoints, ptr %79, i32 0, i32 4
  %81 = load ptr, ptr %80, align 8, !tbaa !140
  %82 = load ptr, ptr %8, align 8, !tbaa !137
  %83 = getelementptr inbounds nuw %struct.InsertPoints, ptr %82, i32 0, i32 1
  %84 = load i32, ptr %83, align 4, !tbaa !142
  %85 = sext i32 %84 to i64
  %86 = getelementptr inbounds %struct.Point, ptr %81, i64 %85
  call void @llvm.memcpy.p0.p0.i64(ptr align 4 %86, ptr align 4 %7, i64 8, i1 false), !tbaa.struct !147
  %87 = load ptr, ptr %8, align 8, !tbaa !137
  %88 = getelementptr inbounds nuw %struct.InsertPoints, ptr %87, i32 0, i32 1
  %89 = load i32, ptr %88, align 4, !tbaa !142
  %90 = add nsw i32 %89, 1
  store i32 %90, ptr %88, align 4, !tbaa !142
  store i32 0, ptr %9, align 4
  br label %91

91:                                               ; preds = %74, %71, %25
  call void @llvm.lifetime.end.p0(i64 8, ptr %8) #10
  call void @llvm.lifetime.end.p0(i64 8, ptr %7) #10
  %92 = load i32, ptr %9, align 4
  switch i32 %92, label %94 [
    i32 0, label %93
    i32 1, label %93
  ]

93:                                               ; preds = %91, %91
  ret void

94:                                               ; preds = %91
  unreachable
}