; Function Attrs: mustprogress uwtable
define internal fastcc void @_ZL8addPointP5UBiDiii(ptr noundef nonnull captures(none) %0, i32 noundef %1, i32 noundef range(i32 1, 5) %2) unnamed_addr #0 {
  %4 = getelementptr inbounds nuw i8, ptr %0, i64 416
  %5 = load i32, ptr %4, align 8, !tbaa !141
  %6 = icmp eq i32 %5, 0
  br i1 %6, label %7, label %14

7:                                                ; preds = %3
  %8 = tail call noalias dereferenceable_or_null(80) ptr @uprv_malloc_77(i64 noundef 80) #16
  %9 = getelementptr inbounds nuw i8, ptr %0, i64 432
  store ptr %8, ptr %9, align 8, !tbaa !142
  %10 = icmp eq ptr %8, null
  br i1 %10, label %11, label %13

11:                                               ; preds = %7
  %12 = getelementptr inbounds nuw i8, ptr %0, i64 428
  store i32 7, ptr %12, align 4, !tbaa !143
  br label %33

13:                                               ; preds = %7
  store i32 10, ptr %4, align 8, !tbaa !141
  br label %14

14:                                               ; preds = %13, %3
  %15 = phi i32 [ 10, %13 ], [ %5, %3 ]
  %16 = getelementptr inbounds nuw i8, ptr %0, i64 420
  %17 = load i32, ptr %16, align 4, !tbaa !144
  %.not = icmp slt i32 %17, %15
  %.phi.trans.insert = getelementptr inbounds nuw i8, ptr %0, i64 432
  %.pre = load ptr, ptr %.phi.trans.insert, align 8, !tbaa !142
  br i1 %.not, label %._crit_edge, label %18

18:                                               ; preds = %14
  %19 = shl nsw i32 %15, 1
  %20 = sext i32 %19 to i64
  %21 = shl nsw i64 %20, 3
  %22 = tail call ptr @uprv_realloc_77(ptr noundef %.pre, i64 noundef %21) #17
  store ptr %22, ptr %.phi.trans.insert, align 8, !tbaa !142
  %.not23 = icmp eq ptr %22, null
  br i1 %.not23, label %.thread, label %24

.thread:                                          ; preds = %18
  store ptr %.pre, ptr %.phi.trans.insert, align 8, !tbaa !142
  %23 = getelementptr inbounds nuw i8, ptr %0, i64 428
  store i32 7, ptr %23, align 4, !tbaa !143
  br label %33

24:                                               ; preds = %18
  %25 = load i32, ptr %4, align 8, !tbaa !141
  %26 = shl nsw i32 %25, 1
  store i32 %26, ptr %4, align 8, !tbaa !141
  %.pre24 = load i32, ptr %16, align 4, !tbaa !144
  br label %._crit_edge

._crit_edge:                                      ; preds = %14, %24
  %27 = phi i32 [ %.pre24, %24 ], [ %17, %14 ]
  %28 = phi ptr [ %22, %24 ], [ %.pre, %14 ]
  %29 = sext i32 %27 to i64
  %30 = getelementptr inbounds %struct.Point, ptr %28, i64 %29
  store i32 %1, ptr %30, align 4, !tbaa !25
  %.sroa.4.0..sroa_idx = getelementptr inbounds nuw i8, ptr %30, i64 4
  store i32 %2, ptr %.sroa.4.0..sroa_idx, align 4, !tbaa !25
  %31 = load i32, ptr %16, align 4, !tbaa !144
  %32 = add nsw i32 %31, 1
  store i32 %32, ptr %16, align 4, !tbaa !144
  br label %33

33:                                               ; preds = %.thread, %._crit_edge, %11
  ret void
}